target datalayout = "e-m:e-p270:32:32-p271:32:32-p272:64:64-i64:64-i128:128-f80:128-n8:16:32:64-S128"
target triple = "x86_64-pc-linux-gnu"

%struct.PyWideStringList = type { i64, ptr }
%struct._object = type { %union.anon.26, ptr }
%union.anon.26 = type { i64 }
%struct.PyConfig = type { i32, i32, i32, i32, i32, i32, i64, i32, i32, i32, i32, i32, i32, i32, ptr, i32, ptr, ptr, ptr, i32, %struct.PyWideStringList, %struct.PyWideStringList, %struct.PyWideStringList, %struct.PyWideStringList, i32, i32, i32, i32, i32, i32, i32, i32, i32, i32, i32, i32, i32, ptr, ptr, ptr, i32, i32, i32, i32, i32, ptr, ptr, ptr, ptr, i32, %struct.PyWideStringList, ptr, ptr, ptr, ptr, ptr, ptr, ptr, i32, ptr, ptr, ptr, ptr, i32, i32, i32 }
%struct.PyCompilerFlags = type { i32, i32 }
%struct._PyCompiler = type { ptr, ptr, %struct._PyFutureFeatures, %struct.PyCompilerFlags, i32, i32, ptr, ptr, ptr, i8 }
%struct._PyFutureFeatures = type { i32, %struct._Py_SourceLocation }
%struct._Py_SourceLocation = type { i32, i32, i32, i32 }
%struct.anon.27 = type { i32, i32 }

@PyExc_SystemError = external global ptr, align 8
@__const.compiler_setup.local_flags = private unnamed_addr constant %struct.PyCompilerFlags { i32 0, i32 14 }, align 4
@.str.15 = private unnamed_addr constant [12 x i8] c"no symtable\00", align 1

; Function Attrs: alwaysinline nounwind uwtable
define internal void @Py_INCREF(ptr noundef %0) #4 {
  %2 = alloca ptr, align 8
  %3 = alloca i32, align 4
  %4 = alloca i32, align 4
  store ptr %0, ptr %2, align 8, !tbaa !32
  call void @llvm.lifetime.start.p0(i64 4, ptr %3) #8
  %5 = load ptr, ptr %2, align 8, !tbaa !32
  %6 = getelementptr inbounds nuw %struct._object, ptr %5, i32 0, i32 0
  %7 = getelementptr inbounds nuw %struct.anon.27, ptr %6, i32 0, i32 0
  %8 = load i32, ptr %7, align 8, !tbaa !11
  store i32 %8, ptr %3, align 4, !tbaa !50
  %9 = load i32, ptr %3, align 4, !tbaa !50
  %10 = icmp slt i32 %9, 0
  br i1 %10, label %11, label %12

11:                                               ; preds = %1
  store i32 1, ptr %4, align 4
  br label %18

12:                                               ; preds = %1
  %13 = load i32, ptr %3, align 4, !tbaa !50
  %14 = add i32 %13, 1
  %15 = load ptr, ptr %2, align 8, !tbaa !32
  %16 = getelementptr inbounds nuw %struct._object, ptr %15, i32 0, i32 0
  %17 = getelementptr inbounds nuw %struct.anon.27, ptr %16, i32 0, i32 0
  store i32 %14, ptr %17, align 8, !tbaa !11
  store i32 0, ptr %4, align 4
  br label %18

18:                                               ; preds = %12, %11
  call void @llvm.lifetime.end.p0(i64 4, ptr %3) #8
  %19 = load i32, ptr %4, align 4
  switch i32 %19, label %21 [
    i32 0, label %20
    i32 1, label %20
  ]

20:                                               ; preds = %18, %18
  ret void

21:                                               ; preds = %18
  unreachable
}

; Function Attrs: inlinehint nounwind uwtable
define internal ptr @_Py_NewRef(ptr noundef %0) #3 {
  %2 = alloca ptr, align 8
  store ptr %0, ptr %2, align 8, !tbaa !32
  %3 = load ptr, ptr %2, align 8, !tbaa !32
  call void @Py_INCREF(ptr noundef %3)
  %4 = load ptr, ptr %2, align 8, !tbaa !32
  ret ptr %4
}

; Function Attrs: nounwind uwtable
define internal i32 @compiler_setup(ptr noundef %0, ptr noundef %1, ptr noundef %2, ptr noundef %3, i32 noundef %4, ptr noundef %5) #0 {
  %7 = alloca i32, align 4
  %8 = alloca ptr, align 8
  %9 = alloca ptr, align 8
  %10 = alloca ptr, align 8
  %11 = alloca ptr, align 8
  %12 = alloca i32, align 4
  %13 = alloca ptr, align 8
  %14 = alloca %struct.PyCompilerFlags, align 4
  %15 = alloca i32, align 4
  %16 = alloca i32, align 4
  store ptr %0, ptr %8, align 8, !tbaa !4
  store ptr %1, ptr %9, align 8, !tbaa !125
  store ptr %2, ptr %10, align 8, !tbaa !32
  store ptr %3, ptr %11, align 8, !tbaa !42
  store i32 %4, ptr %12, align 4, !tbaa !50
  store ptr %5, ptr %13, align 8, !tbaa !127
  call void @llvm.lifetime.start.p0(i64 8, ptr %14) #8
  call void @llvm.memcpy.p0.p0.i64(ptr align 4 %14, ptr align 4 @__const.compiler_setup.local_flags, i64 8, i1 false)
  %17 = call ptr @PyDict_New()
  %18 = load ptr, ptr %8, align 8, !tbaa !4
  %19 = getelementptr inbounds nuw %struct._PyCompiler, ptr %18, i32 0, i32 6
  store ptr %17, ptr %19, align 8, !tbaa !47
  %20 = load ptr, ptr %8, align 8, !tbaa !4
  %21 = getelementptr inbounds nuw %struct._PyCompiler, ptr %20, i32 0, i32 6
  %22 = load ptr, ptr %21, align 8, !tbaa !47
  %23 = icmp ne ptr %22, null
  br i1 %23, label %25, label %24

24:                                               ; preds = %6
  store i32 -1, ptr %7, align 4
  store i32 1, ptr %15, align 4
  br label %112

25:                                               ; preds = %6
  %26 = call ptr @PyList_New(i64 noundef 0)
  %27 = load ptr, ptr %8, align 8, !tbaa !4
  %28 = getelementptr inbounds nuw %struct._PyCompiler, ptr %27, i32 0, i32 8
  store ptr %26, ptr %28, align 8, !tbaa !15
  %29 = load ptr, ptr %8, align 8, !tbaa !4
  %30 = getelementptr inbounds nuw %struct._PyCompiler, ptr %29, i32 0, i32 8
  %31 = load ptr, ptr %30, align 8, !tbaa !15
  %32 = icmp ne ptr %31, null
  br i1 %32, label %34, label %33

33:                                               ; preds = %25
  store i32 -1, ptr %7, align 4
  store i32 1, ptr %15, align 4
  br label %112

34:                                               ; preds = %25
  %35 = load ptr, ptr %10, align 8, !tbaa !32
  %36 = call ptr @_Py_NewRef(ptr noundef %35)
  %37 = load ptr, ptr %8, align 8, !tbaa !4
  %38 = getelementptr inbounds nuw %struct._PyCompiler, ptr %37, i32 0, i32 0
  store ptr %36, ptr %38, align 8, !tbaa !93
  %39 = load ptr, ptr %9, align 8, !tbaa !125
  %40 = load ptr, ptr %10, align 8, !tbaa !32
  %41 = load ptr, ptr %8, align 8, !tbaa !4
  %42 = getelementptr inbounds nuw %struct._PyCompiler, ptr %41, i32 0, i32 2
  %43 = call i32 @_PyFuture_FromAST(ptr noundef %39, ptr noundef %40, ptr noundef %42)
  %44 = icmp ne i32 %43, 0
  br i1 %44, label %46, label %45

45:                                               ; preds = %34
  store i32 -1, ptr %7, align 4
  store i32 1, ptr %15, align 4
  br label %112

46:                                               ; preds = %34
  %47 = load ptr, ptr %11, align 8, !tbaa !42
  %48 = icmp ne ptr %47, null
  br i1 %48, label %50, label %49

49:                                               ; preds = %46
  store ptr %14, ptr %11, align 8, !tbaa !42
  br label %50

50:                                               ; preds = %49, %46
  call void @llvm.lifetime.start.p0(i64 4, ptr %16) #8
  %51 = load ptr, ptr %8, align 8, !tbaa !4
  %52 = getelementptr inbounds nuw %struct._PyCompiler, ptr %51, i32 0, i32 2
  %53 = getelementptr inbounds nuw %struct._PyFutureFeatures, ptr %52, i32 0, i32 0
  %54 = load i32, ptr %53, align 8, !tbaa !114
  %55 = load ptr, ptr %11, align 8, !tbaa !42
  %56 = getelementptr inbounds nuw %struct.PyCompilerFlags, ptr %55, i32 0, i32 0
  %57 = load i32, ptr %56, align 4, !tbaa !132
  %58 = or i32 %54, %57
  store i32 %58, ptr %16, align 4, !tbaa !50
  %59 = load i32, ptr %16, align 4, !tbaa !50
  %60 = load ptr, ptr %8, align 8, !tbaa !4
  %61 = getelementptr inbounds nuw %struct._PyCompiler, ptr %60, i32 0, i32 2
  %62 = getelementptr inbounds nuw %struct._PyFutureFeatures, ptr %61, i32 0, i32 0
  store i32 %59, ptr %62, align 8, !tbaa !114
  %63 = load i32, ptr %16, align 4, !tbaa !50
  %64 = load ptr, ptr %11, align 8, !tbaa !42
  %65 = getelementptr inbounds nuw %struct.PyCompilerFlags, ptr %64, i32 0, i32 0
  store i32 %63, ptr %65, align 4, !tbaa !132
  %66 = load ptr, ptr %8, align 8, !tbaa !4
  %67 = getelementptr inbounds nuw %struct._PyCompiler, ptr %66, i32 0, i32 3
  %68 = load ptr, ptr %11, align 8, !tbaa !42
  call void @llvm.memcpy.p0.p0.i64(ptr align 4 %67, ptr align 4 %68, i64 8, i1 false), !tbaa.struct !156
  %69 = load i32, ptr %12, align 4, !tbaa !50
  %70 = icmp eq i32 %69, -1
  br i1 %70, label %71, label %75

71:                                               ; preds = %50
  %72 = call ptr @_Py_GetConfig()
  %73 = getelementptr inbounds nuw %struct.PyConfig, ptr %72, i32 0, i32 29
  %74 = load i32, ptr %73, align 4, !tbaa !133
  br label %77

75:                                               ; preds = %50
  %76 = load i32, ptr %12, align 4, !tbaa !50
  br label %77

77:                                               ; preds = %75, %71
  %78 = phi i32 [ %74, %71 ], [ %76, %75 ]
  %79 = load ptr, ptr %8, align 8, !tbaa !4
  %80 = getelementptr inbounds nuw %struct._PyCompiler, ptr %79, i32 0, i32 4
  store i32 %78, ptr %80, align 4, !tbaa !115
  %81 = load ptr, ptr %8, align 8, !tbaa !4
  %82 = getelementptr inbounds nuw %struct._PyCompiler, ptr %81, i32 0, i32 9
  store i8 0, ptr %82, align 8, !tbaa !83
  %83 = load ptr, ptr %9, align 8, !tbaa !125
  %84 = load ptr, ptr %13, align 8, !tbaa !127
  %85 = load ptr, ptr %8, align 8, !tbaa !4
  %86 = getelementptr inbounds nuw %struct._PyCompiler, ptr %85, i32 0, i32 4
  %87 = load i32, ptr %86, align 4, !tbaa !115
  %88 = load i32, ptr %16, align 4, !tbaa !50
  %89 = call i32 @_PyAST_Optimize(ptr noundef %83, ptr noundef %84, i32 noundef %87, i32 noundef %88)
  %90 = icmp ne i32 %89, 0
  br i1 %90, label %92, label %91

91:                                               ; preds = %77
  store i32 -1, ptr %7, align 4
  store i32 1, ptr %15, align 4
  br label %111

92:                                               ; preds = %77
  %93 = load ptr, ptr %9, align 8, !tbaa !125
  %94 = load ptr, ptr %10, align 8, !tbaa !32
  %95 = load ptr, ptr %8, align 8, !tbaa !4
  %96 = getelementptr inbounds nuw %struct._PyCompiler, ptr %95, i32 0, i32 2
  %97 = call ptr @_PySymtable_Build(ptr noundef %93, ptr noundef %94, ptr noundef %96)
  %98 = load ptr, ptr %8, align 8, !tbaa !4
  %99 = getelementptr inbounds nuw %struct._PyCompiler, ptr %98, i32 0, i32 1
  store ptr %97, ptr %99, align 8, !tbaa !55
  %100 = load ptr, ptr %8, align 8, !tbaa !4
  %101 = getelementptr inbounds nuw %struct._PyCompiler, ptr %100, i32 0, i32 1
  %102 = load ptr, ptr %101, align 8, !tbaa !55
  %103 = icmp eq ptr %102, null
  br i1 %103, label %104, label %110

104:                                              ; preds = %92
  %105 = call ptr @PyErr_Occurred()
  %106 = icmp ne ptr %105, null
  br i1 %106, label %109, label %107

107:                                              ; preds = %104
  %108 = load ptr, ptr @PyExc_SystemError, align 8, !tbaa !32
  call void @PyErr_SetString(ptr noundef %108, ptr noundef @.str.15)
  br label %109

109:                                              ; preds = %107, %104
  store i32 -1, ptr %7, align 4
  store i32 1, ptr %15, align 4
  br label %111

110:                                              ; preds = %92
  store i32 0, ptr %7, align 4
  store i32 1, ptr %15, align 4
  br label %111

111:                                              ; preds = %110, %109, %91
  call void @llvm.lifetime.end.p0(i64 4, ptr %16) #8
  br label %112

112:                                              ; preds = %111, %45, %33, %24
  call void @llvm.lifetime.end.p0(i64 8, ptr %14) #8
  %113 = load i32, ptr %7, align 4
  ret i32 %113
}

; Function Attrs: nounwind uwtable
define internal ptr @new_compiler(ptr noundef %0, ptr noundef %1, ptr noundef %2, i32 noundef %3, ptr noundef %4) #0 {
  %6 = alloca ptr, align 8
  %7 = alloca ptr, align 8
  %8 = alloca ptr, align 8
  %9 = alloca ptr, align 8
  %10 = alloca i32, align 4
  %11 = alloca ptr, align 8
  %12 = alloca ptr, align 8
  %13 = alloca i32, align 4
  store ptr %0, ptr %7, align 8, !tbaa !125
  store ptr %1, ptr %8, align 8, !tbaa !32
  store ptr %2, ptr %9, align 8, !tbaa !42
  store i32 %3, ptr %10, align 4, !tbaa !50
  store ptr %4, ptr %11, align 8, !tbaa !127
  call void @llvm.lifetime.start.p0(i64 8, ptr %12) #8
  %14 = call ptr @PyMem_Calloc(i64 noundef 1, i64 noundef 88)
  store ptr %14, ptr %12, align 8, !tbaa !4
  %15 = load ptr, ptr %12, align 8, !tbaa !4
  %16 = icmp eq ptr %15, null
  br i1 %16, label %17, label %18

17:                                               ; preds = %5
  store ptr null, ptr %6, align 8
  store i32 1, ptr %13, align 4
  br label %31

18:                                               ; preds = %5
  %19 = load ptr, ptr %12, align 8, !tbaa !4
  %20 = load ptr, ptr %7, align 8, !tbaa !125
  %21 = load ptr, ptr %8, align 8, !tbaa !32
  %22 = load ptr, ptr %9, align 8, !tbaa !42
  %23 = load i32, ptr %10, align 4, !tbaa !50
  %24 = load ptr, ptr %11, align 8, !tbaa !127
  %25 = call i32 @compiler_setup(ptr noundef %19, ptr noundef %20, ptr noundef %21, ptr noundef %22, i32 noundef %23, ptr noundef %24)
  %26 = icmp slt i32 %25, 0
  br i1 %26, label %27, label %29

27:                                               ; preds = %18
  %28 = load ptr, ptr %12, align 8, !tbaa !4
  call void @compiler_free(ptr noundef %28)
  store ptr null, ptr %6, align 8
  store i32 1, ptr %13, align 4
  br label %31

29:                                               ; preds = %18
  %30 = load ptr, ptr %12, align 8, !tbaa !4
  store ptr %30, ptr %6, align 8
  store i32 1, ptr %13, align 4
  br label %31

31:                                               ; preds = %29, %27, %17
  call void @llvm.lifetime.end.p0(i64 8, ptr %12) #8
  %32 = load ptr, ptr %6, align 8
  ret ptr %32
}