; Function Attrs: nounwind uwtable
define internal fastcc ptr @new_compiler(ptr noundef %0, ptr noundef %1, ptr noundef %2, i32 noundef %3, ptr noundef %4) unnamed_addr #0 {
  %6 = alloca %struct.PyCompilerFlags, align 8
  %7 = tail call ptr @PyMem_Calloc(i64 noundef 1, i64 noundef 88) #11
  %8 = icmp eq ptr %7, null
  br i1 %8, label %47, label %9

9:                                                ; preds = %5
  call void @llvm.lifetime.start.p0(i64 8, ptr nonnull %6)
  store i64 60129542144, ptr %6, align 8
  %10 = tail call ptr @PyDict_New() #11
  %11 = getelementptr inbounds nuw i8, ptr %7, i64 56
  store ptr %10, ptr %11, align 8, !tbaa !41
  %.not.i = icmp eq ptr %10, null
  br i1 %.not.i, label %46, label %12

12:                                               ; preds = %9
  %13 = tail call ptr @PyList_New(i64 noundef 0) #11
  %14 = getelementptr inbounds nuw i8, ptr %7, i64 72
  store ptr %13, ptr %14, align 8, !tbaa !10
  %.not32.i = icmp eq ptr %13, null
  br i1 %.not32.i, label %46, label %15

15:                                               ; preds = %12
  %16 = load i32, ptr %1, align 8, !tbaa !4
  %17 = icmp slt i32 %16, 0
  br i1 %17, label %_Py_NewRef.exit.i, label %18

18:                                               ; preds = %15
  %19 = add nuw i32 %16, 1
  store i32 %19, ptr %1, align 8, !tbaa !4
  br label %_Py_NewRef.exit.i

_Py_NewRef.exit.i:                                ; preds = %18, %15
  store ptr %1, ptr %7, align 8, !tbaa !77
  %20 = getelementptr inbounds nuw i8, ptr %7, i64 16
  %21 = tail call i32 @_PyFuture_FromAST(ptr noundef %0, ptr noundef nonnull %1, ptr noundef nonnull %20) #11
  %.not33.i = icmp eq i32 %21, 0
  br i1 %.not33.i, label %46, label %22

22:                                               ; preds = %_Py_NewRef.exit.i
  %.not34.i = icmp eq ptr %2, null
  %spec.store.select.i = select i1 %.not34.i, ptr %6, ptr %2
  %23 = load i32, ptr %20, align 8, !tbaa !87
  %24 = load i32, ptr %spec.store.select.i, align 4, !tbaa !99
  %25 = or i32 %24, %23
  store i32 %25, ptr %20, align 8, !tbaa !87
  store i32 %25, ptr %spec.store.select.i, align 4, !tbaa !99
  %26 = getelementptr inbounds nuw i8, ptr %7, i64 36
  %27 = load i64, ptr %spec.store.select.i, align 4
  store i64 %27, ptr %26, align 4
  %28 = icmp eq i32 %3, -1
  br i1 %28, label %29, label %33

29:                                               ; preds = %22
  %30 = tail call ptr @_Py_GetConfig() #11
  %31 = getelementptr inbounds nuw i8, ptr %30, i64 196
  %32 = load i32, ptr %31, align 4, !tbaa !100
  br label %33

33:                                               ; preds = %29, %22
  %34 = phi i32 [ %32, %29 ], [ %3, %22 ]
  %35 = getelementptr inbounds nuw i8, ptr %7, i64 44
  store i32 %34, ptr %35, align 4, !tbaa !88
  %36 = getelementptr inbounds nuw i8, ptr %7, i64 80
  store i8 0, ptr %36, align 8, !tbaa !70
  %37 = tail call i32 @_PyAST_Optimize(ptr noundef %0, ptr noundef %4, i32 noundef %34, i32 noundef %25) #11
  %.not35.i = icmp eq i32 %37, 0
  br i1 %.not35.i, label %46, label %38

38:                                               ; preds = %33
  %39 = tail call ptr @_PySymtable_Build(ptr noundef %0, ptr noundef nonnull %1, ptr noundef nonnull %20) #11
  %40 = getelementptr inbounds nuw i8, ptr %7, i64 8
  store ptr %39, ptr %40, align 8, !tbaa !47
  %41 = icmp eq ptr %39, null
  br i1 %41, label %42, label %compiler_setup.exit

42:                                               ; preds = %38
  %43 = tail call ptr @PyErr_Occurred() #11
  %.not36.i = icmp eq ptr %43, null
  br i1 %.not36.i, label %44, label %46

44:                                               ; preds = %42
  %45 = load ptr, ptr @PyExc_SystemError, align 8, !tbaa !28
  tail call void @PyErr_SetString(ptr noundef %45, ptr noundef nonnull @.str.15) #11
  br label %46

compiler_setup.exit:                              ; preds = %38
  call void @llvm.lifetime.end.p0(i64 8, ptr nonnull %6)
  br label %47

46:                                               ; preds = %9, %12, %_Py_NewRef.exit.i, %33, %44, %42
  call void @llvm.lifetime.end.p0(i64 8, ptr nonnull %6)
  tail call fastcc void @compiler_free(ptr noundef %7)
  br label %47

47:                                               ; preds = %compiler_setup.exit, %5, %46
  %.0 = phi ptr [ null, %46 ], [ null, %5 ], [ %7, %compiler_setup.exit ]
  ret ptr %.0
}